; Function Attrs: mustprogress nounwind uwtable
define hidden noundef ptr @_ZN11ConvD2INode5IdealEP8PhaseGVNb(ptr noundef nonnull align 8 dereferenceable(64) %0, ptr nocapture noundef readnone %1, i1 noundef zeroext %2) unnamed_addr #1 align 2 {
  %4 = getelementptr inbounds i8, ptr %0, i64 8
  %5 = load ptr, ptr %4, align 8
  %6 = getelementptr inbounds i8, ptr %5, i64 8
  %7 = load ptr, ptr %6, align 8
  %8 = load ptr, ptr %7, align 8
  %9 = load ptr, ptr %8, align 8
  %10 = tail call noundef i32 %9(ptr noundef nonnull align 8 dereferenceable(52) %7) #8
  %11 = icmp eq i32 %10, 292
  br i1 %11, label %12, label %_ZN4Node7set_reqEjPS_.exit

12:                                               ; preds = %3
  %13 = load ptr, ptr %4, align 8
  %14 = getelementptr inbounds i8, ptr %13, i64 8
  %15 = load ptr, ptr %14, align 8
  %16 = getelementptr inbounds i8, ptr %15, i64 8
  %17 = load ptr, ptr %16, align 8
  %18 = getelementptr inbounds i8, ptr %17, i64 8
  %19 = load ptr, ptr %18, align 8
  %20 = getelementptr inbounds i8, ptr %15, i64 16
  %21 = load ptr, ptr %20, align 8
  %22 = icmp eq ptr %21, null
  br i1 %22, label %_ZN4Node7del_outEPS_.exit.i, label %23

23:                                               ; preds = %12
  %24 = getelementptr inbounds i8, ptr %15, i64 32
  %25 = load i32, ptr %24, align 8
  %26 = zext i32 %25 to i64
  %27 = getelementptr inbounds ptr, ptr %21, i64 %26
  br label %28

28:                                               ; preds = %28, %23
  %.0.i.i = phi ptr [ %27, %23 ], [ %29, %28 ]
  %29 = getelementptr inbounds i8, ptr %.0.i.i, i64 -8
  %30 = load ptr, ptr %29, align 8
  %.not.i.i = icmp eq ptr %30, %0
  br i1 %.not.i.i, label %31, label %28, !llvm.loop !6

31:                                               ; preds = %28
  %32 = add i32 %25, -1
  store i32 %32, ptr %24, align 8
  %33 = zext i32 %32 to i64
  %34 = getelementptr inbounds ptr, ptr %21, i64 %33
  %35 = load ptr, ptr %34, align 8
  store ptr %35, ptr %29, align 8
  br label %_ZN4Node7del_outEPS_.exit.i

_ZN4Node7del_outEPS_.exit.i:                      ; preds = %31, %12
  store ptr %19, ptr %14, align 8
  %.not8.i = icmp eq ptr %19, null
  br i1 %.not8.i, label %_ZN4Node7set_reqEjPS_.exit, label %36

36:                                               ; preds = %_ZN4Node7del_outEPS_.exit.i
  %37 = getelementptr inbounds i8, ptr %19, i64 16
  %38 = load ptr, ptr %37, align 8
  %39 = icmp eq ptr %38, null
  br i1 %39, label %_ZN4Node7set_reqEjPS_.exit, label %40

40:                                               ; preds = %36
  %41 = getelementptr inbounds i8, ptr %19, i64 32
  %42 = load i32, ptr %41, align 8
  %43 = getelementptr inbounds i8, ptr %19, i64 36
  %44 = load i32, ptr %43, align 4
  %45 = icmp eq i32 %42, %44
  br i1 %45, label %46, label %47

46:                                               ; preds = %40
  tail call void @_ZN4Node8out_growEj(ptr noundef nonnull align 8 dereferenceable(52) %19, i32 noundef %42) #8
  %.pre.i.i = load ptr, ptr %37, align 8
  %.pre2.i.i = load i32, ptr %41, align 8
  br label %47

47:                                               ; preds = %46, %40
  %48 = phi i32 [ %.pre2.i.i, %46 ], [ %42, %40 ]
  %49 = phi ptr [ %.pre.i.i, %46 ], [ %38, %40 ]
  %50 = add i32 %48, 1
  store i32 %50, ptr %41, align 8
  %51 = zext i32 %48 to i64
  %52 = getelementptr inbounds ptr, ptr %49, i64 %51
  store ptr %0, ptr %52, align 8
  br label %_ZN4Node7set_reqEjPS_.exit

_ZN4Node7set_reqEjPS_.exit:                       ; preds = %47, %36, %_ZN4Node7del_outEPS_.exit.i, %3
  %.0 = phi ptr [ null, %3 ], [ %0, %_ZN4Node7del_outEPS_.exit.i ], [ %0, %36 ], [ %0, %47 ]
  ret ptr %.0
}